(dp0
V\u000a
p1
I0
sV 
p2
I1
sV1
p3
I3
sV0
p4
I2
sV3
p5
I5
sV2
p6
I4
sV5
p7
I7
sV4
p8
I6
sV7
p9
I9
sV6
p10
I8
sV9
p11
I11
sV8
p12
I10
sVA
p13
I12
sVC
p14
I14
sVB
p15
I13
sVE
p16
I16
sVD
p17
I15
sVG
p18
I18
sVF
p19
I17
sVI
p20
I20
sVH
p21
I19
sVK
p22
I22
sVJ
p23
I21
sVM
p24
I24
sVL
p25
I23
sVO
p26
I26
sVN
p27
I25
sVQ
p28
I28
sVP
p29
I27
sVS
p30
I30
sVR
p31
I29
sVU
p32
I32
sVT
p33
I31
sVW
p34
I34
sVV
p35
I33
sVY
p36
I36
sVX
p37
I35
sVZ
p38
I37
sVa
p39
I38
sVc
p40
I40
sVb
p41
I39
sVe
p42
I42
sVd
p43
I41
sVg
p44
I44
sVf
p45
I43
sVi
p46
I46
sVh
p47
I45
sVk
p48
I48
sVj
p49
I47
sVm
p50
I50
sVl
p51
I49
sVo
p52
I52
sVn
p53
I51
sVq
p54
I54
sVp
p55
I53
sVs
p56
I56
sVr
p57
I55
sVu
p58
I58
sVt
p59
I57
sVw
p60
I60
sVv
p61
I59
sVy
p62
I62
sVx
p63
I61
sVz
p64
I63
s.